; Function Attrs: mustprogress uwtable
define hidden noundef nonnull align 8 dereferenceable(8) ptr @_ZNK3sat4drat2ppERSoNS_6statusE(ptr nocapture noundef nonnull readnone align 8 dereferenceable(664) %this, ptr noundef nonnull returned align 8 dereferenceable(8) %out, ptr nocapture noundef readonly %st) local_unnamed_addr #3 align 2 {
entry:
  %0 = load i32, ptr %st, align 8
  %cmp.i = icmp eq i32 %0, 3
  br i1 %cmp.i, label %if.then, label %if.end

if.then:                                          ; preds = %entry
  %call2 = tail call noundef nonnull align 8 dereferenceable(8) ptr @_ZStlsISt11char_traitsIcEERSt13basic_ostreamIcT_ES5_PKc(ptr noundef nonnull align 8 dereferenceable(8) %out, ptr noundef nonnull @.str)
  br label %if.end

if.end:                                           ; preds = %if.then, %entry
  ret ptr %out
}